target datalayout = "e-m:e-p270:32:32-p271:32:32-p272:64:64-i64:64-i128:128-f80:128-n8:16:32:64-S128"
target triple = "x86_64-pc-linux-gnu"

%struct.SDL_Mouse = type { ptr, ptr, ptr, ptr, ptr, ptr, ptr, ptr, ptr, ptr, ptr, ptr, ptr, ptr, i8, float, float, ptr, float, float, float, float, float, float, float, float, double, double, i8, i8, i8, i8, i8, i8, i8, i8, i64, i8, float, i8, float, i8, i32, i32, i8, i8, i8, i8, i8, i8, i8, i8, i8, ptr, i32, ptr, ptr, ptr, ptr, i8, ptr }

; Function Attrs: nounwind uwtable
define internal void @SDL_MouseNormalSpeedScaleChanged(ptr noundef %0, ptr noundef %1, ptr noundef %2, ptr noundef %3) #0 {
  %5 = alloca ptr, align 8
  %6 = alloca ptr, align 8
  %7 = alloca ptr, align 8
  %8 = alloca ptr, align 8
  %9 = alloca ptr, align 8
  store ptr %0, ptr %5, align 8
  store ptr %1, ptr %6, align 8
  store ptr %2, ptr %7, align 8
  store ptr %3, ptr %8, align 8
  call void @llvm.lifetime.start.p0(i64 8, ptr %9) #7
  %10 = load ptr, ptr %5, align 8
  store ptr %10, ptr %9, align 8
  %11 = load ptr, ptr %8, align 8
  %12 = icmp ne ptr %11, null
  br i1 %12, label %13, label %26

13:                                               ; preds = %4
  %14 = load ptr, ptr %8, align 8
  %15 = load i8, ptr %14, align 1
  %16 = sext i8 %15 to i32
  %17 = icmp ne i32 %16, 0
  br i1 %17, label %18, label %26

18:                                               ; preds = %13
  %19 = load ptr, ptr %9, align 8
  %20 = getelementptr inbounds nuw %struct.SDL_Mouse, ptr %19, i32 0, i32 37
  store i8 1, ptr %20, align 8
  %21 = load ptr, ptr %8, align 8
  %22 = call double @SDL_atof_REAL(ptr noundef %21)
  %23 = fptrunc double %22 to float
  %24 = load ptr, ptr %9, align 8
  %25 = getelementptr inbounds nuw %struct.SDL_Mouse, ptr %24, i32 0, i32 38
  store float %23, ptr %25, align 4
  br label %31

26:                                               ; preds = %13, %4
  %27 = load ptr, ptr %9, align 8
  %28 = getelementptr inbounds nuw %struct.SDL_Mouse, ptr %27, i32 0, i32 37
  store i8 0, ptr %28, align 8
  %29 = load ptr, ptr %9, align 8
  %30 = getelementptr inbounds nuw %struct.SDL_Mouse, ptr %29, i32 0, i32 38
  store float 1.000000e+00, ptr %30, align 4
  br label %31

31:                                               ; preds = %26, %18
  call void @llvm.lifetime.end.p0(i64 8, ptr %9) #7
  ret void
}